target datalayout = "e-m:e-p270:32:32-p271:32:32-p272:64:64-i64:64-i128:128-f80:128-n8:16:32:64-S128"
target triple = "x86_64-pc-linux-gnu"

%struct.Dsd_Manager_t_ = type { ptr, ptr, i32, i32, i32, ptr, ptr, ptr, i32 }

; Function Attrs: nounwind uwtable
define void @Dsd_ManagerStop(ptr noundef %0) #0 {
  %2 = alloca ptr, align 8
  %3 = alloca ptr, align 8
  %4 = alloca ptr, align 8
  %5 = alloca ptr, align 8
  store ptr %0, ptr %2, align 8, !tbaa !10
  call void @llvm.lifetime.start.p0(i64 8, ptr %3) #6
  call void @llvm.lifetime.start.p0(i64 8, ptr %4) #6
  call void @llvm.lifetime.start.p0(i64 8, ptr %5) #6
  %6 = load ptr, ptr %2, align 8, !tbaa !10
  %7 = getelementptr inbounds nuw %struct.Dsd_Manager_t_, ptr %6, i32 0, i32 1
  %8 = load ptr, ptr %7, align 8, !tbaa !23
  %9 = call ptr @st__init_gen(ptr noundef %8)
  store ptr %9, ptr %3, align 8, !tbaa !51
  br label %10

10:                                               ; preds = %18, %1
  %11 = load ptr, ptr %3, align 8, !tbaa !51
  %12 = call i32 @st__gen(ptr noundef %11, ptr noundef %5, ptr noundef %4)
  %13 = icmp ne i32 %12, 0
  br i1 %13, label %16, label %14

14:                                               ; preds = %10
  %15 = load ptr, ptr %3, align 8, !tbaa !51
  call void @st__free_gen(ptr noundef %15)
  br label %16

16:                                               ; preds = %14, %10
  %17 = phi i1 [ true, %10 ], [ false, %14 ]
  br i1 %17, label %18, label %26

18:                                               ; preds = %16
  %19 = load ptr, ptr %2, align 8, !tbaa !10
  %20 = getelementptr inbounds nuw %struct.Dsd_Manager_t_, ptr %19, i32 0, i32 0
  %21 = load ptr, ptr %20, align 8, !tbaa !12
  %22 = load ptr, ptr %4, align 8, !tbaa !24
  %23 = ptrtoint ptr %22 to i64
  %24 = and i64 %23, -2
  %25 = inttoptr i64 %24 to ptr
  call void @Dsd_TreeNodeDelete(ptr noundef %21, ptr noundef %25)
  br label %10, !llvm.loop !53

26:                                               ; preds = %16
  %27 = load ptr, ptr %2, align 8, !tbaa !10
  %28 = getelementptr inbounds nuw %struct.Dsd_Manager_t_, ptr %27, i32 0, i32 1
  %29 = load ptr, ptr %28, align 8, !tbaa !23
  call void @st__free_table(ptr noundef %29)
  %30 = load ptr, ptr %2, align 8, !tbaa !10
  %31 = getelementptr inbounds nuw %struct.Dsd_Manager_t_, ptr %30, i32 0, i32 5
  %32 = load ptr, ptr %31, align 8, !tbaa !22
  %33 = icmp ne ptr %32, null
  br i1 %33, label %34, label %40

34:                                               ; preds = %26
  %35 = load ptr, ptr %2, align 8, !tbaa !10
  %36 = getelementptr inbounds nuw %struct.Dsd_Manager_t_, ptr %35, i32 0, i32 5
  %37 = load ptr, ptr %36, align 8, !tbaa !22
  call void @free(ptr noundef %37) #6
  %38 = load ptr, ptr %2, align 8, !tbaa !10
  %39 = getelementptr inbounds nuw %struct.Dsd_Manager_t_, ptr %38, i32 0, i32 5
  store ptr null, ptr %39, align 8, !tbaa !22
  br label %41

40:                                               ; preds = %26
  br label %41

41:                                               ; preds = %40, %34
  %42 = load ptr, ptr %2, align 8, !tbaa !10
  %43 = getelementptr inbounds nuw %struct.Dsd_Manager_t_, ptr %42, i32 0, i32 6
  %44 = load ptr, ptr %43, align 8, !tbaa !21
  %45 = icmp ne ptr %44, null
  br i1 %45, label %46, label %52

46:                                               ; preds = %41
  %47 = load ptr, ptr %2, align 8, !tbaa !10
  %48 = getelementptr inbounds nuw %struct.Dsd_Manager_t_, ptr %47, i32 0, i32 6
  %49 = load ptr, ptr %48, align 8, !tbaa !21
  call void @free(ptr noundef %49) #6
  %50 = load ptr, ptr %2, align 8, !tbaa !10
  %51 = getelementptr inbounds nuw %struct.Dsd_Manager_t_, ptr %50, i32 0, i32 6
  store ptr null, ptr %51, align 8, !tbaa !21
  br label %53

52:                                               ; preds = %41
  br label %53

53:                                               ; preds = %52, %46
  %54 = load ptr, ptr %2, align 8, !tbaa !10
  %55 = icmp ne ptr %54, null
  br i1 %55, label %56, label %58

56:                                               ; preds = %53
  %57 = load ptr, ptr %2, align 8, !tbaa !10
  call void @free(ptr noundef %57) #6
  store ptr null, ptr %2, align 8, !tbaa !10
  br label %59

58:                                               ; preds = %53
  br label %59

59:                                               ; preds = %58, %56
  call void (...) @Dsd_CheckCacheDeallocate()
  call void @llvm.lifetime.end.p0(i64 8, ptr %5) #6
  call void @llvm.lifetime.end.p0(i64 8, ptr %4) #6
  call void @llvm.lifetime.end.p0(i64 8, ptr %3) #6
  ret void
}