; Function Attrs: nounwind uwtable
define void @Dsd_ManagerStop(ptr noundef captures(none) %0) local_unnamed_addr #0 {
  %2 = alloca ptr, align 8
  %3 = alloca ptr, align 8
  call void @llvm.lifetime.start.p0(i64 8, ptr nonnull %2) #7
  call void @llvm.lifetime.start.p0(i64 8, ptr nonnull %3) #7
  %4 = getelementptr inbounds nuw i8, ptr %0, i64 8
  %5 = load ptr, ptr %4, align 8, !tbaa !18
  %6 = tail call ptr @st__init_gen(ptr noundef %5) #7
  %7 = call i32 @st__gen(ptr noundef %6, ptr noundef nonnull %3, ptr noundef nonnull %2) #7
  %.not18 = icmp eq i32 %7, 0
  br i1 %.not18, label %._crit_edge, label %.critedge

._crit_edge:                                      ; preds = %.critedge, %1
  call void @st__free_gen(ptr noundef %6) #7
  %8 = load ptr, ptr %4, align 8, !tbaa !18
  call void @st__free_table(ptr noundef %8) #7
  %9 = getelementptr inbounds nuw i8, ptr %0, i64 32
  %10 = load ptr, ptr %9, align 8, !tbaa !17
  %.not15 = icmp eq ptr %10, null
  br i1 %.not15, label %18, label %17

.critedge:                                        ; preds = %1, %.critedge
  %11 = load ptr, ptr %0, align 8, !tbaa !3
  %12 = load ptr, ptr %2, align 8, !tbaa !41
  %13 = ptrtoint ptr %12 to i64
  %14 = and i64 %13, -2
  %15 = inttoptr i64 %14 to ptr
  call void @Dsd_TreeNodeDelete(ptr noundef %11, ptr noundef %15) #7
  %16 = call i32 @st__gen(ptr noundef %6, ptr noundef nonnull %3, ptr noundef nonnull %2) #7
  %.not = icmp eq i32 %16, 0
  br i1 %.not, label %._crit_edge, label %.critedge, !llvm.loop !46

17:                                               ; preds = %._crit_edge
  call void @free(ptr noundef nonnull %10) #7
  store ptr null, ptr %9, align 8, !tbaa !17
  br label %18

18:                                               ; preds = %._crit_edge, %17
  %19 = getelementptr inbounds nuw i8, ptr %0, i64 40
  %20 = load ptr, ptr %19, align 8, !tbaa !16
  %.not16 = icmp eq ptr %20, null
  br i1 %.not16, label %22, label %21

21:                                               ; preds = %18
  call void @free(ptr noundef nonnull %20) #7
  br label %22

22:                                               ; preds = %18, %21
  call void @free(ptr noundef nonnull %0) #7
  call void (...) @Dsd_CheckCacheDeallocate() #7
  call void @llvm.lifetime.end.p0(i64 8, ptr nonnull %3) #7
  call void @llvm.lifetime.end.p0(i64 8, ptr nonnull %2) #7
  ret void
}